Certificate:
    Data:
        Version: 3 (0x2)
        Serial Number:
            17:a8:7c:6a:44:f9:d7:c5:01:ed:97:98:29:5a:0f:b6
        Signature Algorithm: sha256WithRSAEncryption
        Issuer: CN=CA2
        Validity
            Not Before: Feb 13 14:23:54 2021 GMT
            Not After : Jan 29 14:23:54 2024 GMT
        Subject: CN=CA2
        Subject Public Key Info:
            Public Key Algorithm: rsaEncryption
                RSA Public-Key: (4096 bit)
                Modulus:
                    00:ad:cf:a5:b7:e4:ac:1e:4d:fb:c9:8b:b1:51:d4:
                    35:f7:de:22:e2:51:d4:ce:51:0f:00:c9:b7:9f:2d:
                    66:7d:5f:5f:70:d3:61:01:af:59:8b:ae:08:8f:1e:
                    b1:6f:c1:b8:71:12:2a:84:b1:64:39:13:6c:d2:be:
                    61:06:90:de:95:cb:7c:30:a5:e4:5f:d2:31:ed:d5:
                    be:e5:10:db:04:4d:9d:b3:98:54:0d:ab:4c:ff:3f:
                    bf:80:06:57:86:84:fe:f0:00:fe:40:2a:c8:06:b4:
                    fd:24:a5:1b:47:1a:86:b7:7d:93:d3:bb:ca:d2:29:
                    f3:7f:e2:44:12:52:34:cd:20:f3:95:ee:46:f7:87:
                    e9:44:1e:00:4b:b8:30:22:79:46:98:d4:f4:bf:93:
                    c9:c3:16:dc:eb:fe:8d:3a:f4:3d:29:c7:7e:1d:29:
                    d1:d7:f3:b9:30:d9:60:ed:d6:f8:6b:db:6a:7a:08:
                    6c:47:49:48:5a:04:30:68:75:c9:a8:77:c2:34:76:
                    60:01:bd:a9:f0:4a:f5:e4:02:d4:55:b3:cc:98:41:
                    bb:39:ce:c1:34:be:db:a8:f8:3e:41:1b:ac:98:71:
                    a1:7c:3f:86:42:2f:98:21:f1:f5:8b:d6:46:3f:66:
                    6f:2c:8a:58:af:dd:bd:ad:de:ba:fb:28:ab:b1:5f:
                    65:7c:c4:9b:7e:8f:09:87:32:8c:83:1a:1d:24:42:
                    ba:ab:37:2c:15:8e:56:48:dd:ab:27:23:23:68:64:
                    50:01:d5:b6:24:27:d9:75:1f:a0:32:f4:53:d4:ec:
                    1a:50:e2:e6:a3:bb:e8:a1:e6:dc:09:a3:76:92:ee:
                    34:b0:e1:7a:23:37:d2:db:98:e5:ee:b6:1b:46:41:
                    0c:6d:41:e5:c6:33:ee:f9:dd:b2:44:54:45:5d:cb:
                    a5:49:e3:4f:68:ec:b2:b5:75:96:29:cf:fe:6e:dc:
                    0d:b3:9d:1d:26:df:9e:60:d4:b4:d0:76:97:3e:cb:
                    c5:76:89:25:ad:27:ce:0b:0f:9b:3e:24:dc:1e:3b:
                    02:0c:eb:ac:bc:ab:0d:b1:da:f9:73:2a:7b:85:d1:
                    51:26:55:5b:13:ba:64:ec:2f:b4:74:87:61:8f:d9:
                    9a:eb:cb:6e:bb:a6:1f:9d:64:3c:6a:8f:95:b2:c4:
                    4e:5e:71:0e:99:be:dd:93:ed:33:ca:ec:cb:55:d1:
                    65:4e:97:e4:7f:5a:10:00:2b:dc:75:48:39:05:8e:
                    43:db:a6:f4:f9:8a:64:03:01:79:32:13:7d:84:59:
                    bd:75:66:dd:06:3f:c6:40:a2:9c:77:b2:5d:a5:fe:
                    55:7f:0d:2b:7e:03:19:35:8d:3c:da:66:1a:ce:7a:
                    ea:82:d3
                Exponent: 65537 (0x10001)
        X509v3 extensions:
            X509v3 Basic Constraints: 
                CA:FALSE
            X509v3 Subject Key Identifier: 
                D1:6C:82:3A:F3:14:D4:B8:D6:B0:67:15:AD:52:E6:56:AE:74:FD:8B
            X509v3 Authority Key Identifier: 
                keyid:99:60:12:2E:A5:81:23:20:09:87:10:7D:53:27:6C:C5:B5:0D:5F:A1
                DirName:/CN=CA1
                serial:59:8A:48:DD:B7:9D:86:D7:44:66:38:E4:98:53:80:50

            X509v3 Extended Key Usage: 
                oidSign1
            X509v3 Key Usage: 
                Digital Signature
            X509v3 Subject Alternative Name: 
                URI:test:test2
    Signature Algorithm: sha256WithRSAEncryption
         99:bd:41:1b:bc:cf:68:fd:16:14:9b:37:bb:44:14:b0:ab:b0:
         b4:ee:dc:ef:25:a0:d1:29:e0:5b:3c:26:af:51:e5:e7:52:72:
         03:55:b2:60:a8:27:b7:ca:b9:7d:63:7a:2a:a2:c9:3b:91:90:
         b6:d5:e5:d1:e4:c9:e3:d6:2e:dd:ea:a3:95:0c:e9:4d:9c:18:
         43:7f:a6:2f:a4:76:82:a3:5c:e5:64:85:f9:5f:0a:a7:36:a0:
         d6:3d:f3:d7:03:83:b1:93:f4:d8:7f:ce:d1:ff:64:aa:c6:d0:
         c0:83:17:e8:31:2f:7e:f5:de:b2:b3:b3:52:71:31:fd:99:32:
         3f:ab:87:c0:00:81:50:46:52:e1:9e:dc:a5:f6:16:68:9b:56:
         92:c1:f3:19:13:96:fe:87:61:81:1d:e0:85:54:8a:cc:d2:ce:
         5f:83:c4:2f:bf:83:c5:f0:e9:41:92:ee:73:fb:f8:2f:57:a5:
         41:60:45:12:58:4d:bf:a8:9e:7c:b4:1d:78:d6:6c:82:5c:1f:
         f9:82:97:d2:98:cd:87:1d:24:39:17:77:b5:5d:38:4e:40:c9:
         f7:6c:48:83:f6:d5:fc:38:fe:72:5e:bb:e7:dd:d3:1f:4c:33:
         df:0e:f8:84:da:9c:61:db:38:ff:2f:8a:9c:d3:ab:fc:71:c9:
         de:6a:4a:f7:63:a3:e1:ae:25:b3:f9:36:4b:c0:2d:8c:66:bc:
         79:67:f1:d1:70:71:c6:9e:16:de:da:5d:ea:39:1b:53:4b:9f:
         b6:ba:f6:ef:b8:f6:c7:d3:31:bd:75:6e:19:27:8d:f6:75:da:
         ee:07:12:42:b9:79:53:dc:05:7e:39:c3:e1:a1:cd:eb:41:16:
         a9:71:5c:04:40:7c:4f:73:bd:4e:64:63:b6:56:3b:3c:fa:ee:
         06:30:aa:a5:5e:86:b5:2d:70:eb:65:97:dc:dd:6b:84:53:39:
         4f:c5:85:54:55:e2:a7:56:b5:2a:87:7e:2e:6f:d6:7a:e2:18:
         95:2c:32:cc:3d:fb:5a:63:b1:87:92:83:33:c9:83:24:1f:41:
         9b:a1:18:66:d7:9b:73:4c:2e:f9:86:8e:f6:a4:53:9e:d7:ea:
         bc:fa:e8:83:38:9a:4e:9e:81:00:78:9f:d2:4b:49:bd:fb:5e:
         79:59:2a:3d:65:21:e7:5e:4f:67:9b:f0:32:53:d0:44:65:8a:
         4e:be:a3:ca:a8:f0:4d:11:70:57:94:51:bd:29:11:a9:79:45:
         bb:5f:d6:30:88:61:c1:e7:a1:4e:23:24:9a:13:69:f2:f9:72:
         e0:c2:83:1b:82:f4:ee:0b:f4:a3:9c:f5:2d:17:1a:a2:01:ea:
         0e:d2:39:f1:90:59:5a:0f
-----BEGIN CERTIFICATE-----
MIIFTzCCAzegAwIBAgIQF6h8akT518UB7ZeYKVoPtjANBgkqhkiG9w0BAQsFADAO
MQwwCgYDVQQDDANDQTIwHhcNMjEwMjEzMTQyMzU0WhcNMjQwMTI5MTQyMzU0WjAO
MQwwCgYDVQQDDANDQTIwggIiMA0GCSqGSIb3DQEBAQUAA4ICDwAwggIKAoICAQCt
z6W35KweTfvJi7FR1DX33iLiUdTOUQ8AybefLWZ9X19w02EBr1mLrgiPHrFvwbhx
EiqEsWQ5E2zSvmEGkN6Vy3wwpeRf0jHt1b7lENsETZ2zmFQNq0z/P7+ABleGhP7w
AP5AKsgGtP0kpRtHGoa3fZPTu8rSKfN/4kQSUjTNIPOV7kb3h+lEHgBLuDAieUaY
1PS/k8nDFtzr/o069D0px34dKdHX87kw2WDt1vhr22p6CGxHSUhaBDBodcmod8I0
dmABvanwSvXkAtRVs8yYQbs5zsE0vtuo+D5BG6yYcaF8P4ZCL5gh8fWL1kY/Zm8s
iliv3b2t3rr7KKuxX2V8xJt+jwmHMoyDGh0kQrqrNywVjlZI3asnIyNoZFAB1bYk
J9l1H6Ay9FPU7BpQ4uaju+ih5twJo3aS7jSw4XojN9LbmOXuthtGQQxtQeXGM+75
3bJEVEVdy6VJ409o7LK1dZYpz/5u3A2znR0m355g1LTQdpc+y8V2iSWtJ84LD5s+
JNweOwIM66y8qw2x2vlzKnuF0VEmVVsTumTsL7R0h2GP2Zrry267ph+dZDxqj5Wy
xE5ecQ6Zvt2T7TPK7MtV0WVOl+R/WhAAK9x1SDkFjkPbpvT5imQDAXkyE32EWb11
Zt0GP8ZAopx3sl2l/lV/DSt+Axk1jTzaZhrOeuqC0wIDAQABo4GoMIGlMAkGA1Ud
EwQCMAAwHQYDVR0OBBYEFNFsgjrzFNS41rBnFa1S5laudP2LMEUGA1UdIwQ+MDyA
FJlgEi6lgSMgCYcQfVMnbMW1DV+hoRKkEDAOMQwwCgYDVQQDDANDQTGCEFmKSN23
nYbXRGY45JhTgFAwDgYDVR0lBAcwBQYDKgMEMAsGA1UdDwQEAwIHgDAVBgNVHREE
DjAMhgp0ZXN0OnRlc3QyMA0GCSqGSIb3DQEBCwUAA4ICAQCZvUEbvM9o/RYUmze7
RBSwq7C07tzvJaDRKeBbPCavUeXnUnIDVbJgqCe3yrl9Y3oqosk7kZC21eXR5Mnj
1i7d6qOVDOlNnBhDf6YvpHaCo1zlZIX5XwqnNqDWPfPXA4Oxk/TYf87R/2SqxtDA
gxfoMS9+9d6ys7NScTH9mTI/q4fAAIFQRlLhntyl9hZom1aSwfMZE5b+h2GBHeCF
VIrM0s5fg8Qvv4PF8OlBku5z+/gvV6VBYEUSWE2/qJ58tB141myCXB/5gpfSmM2H
HSQ5F3e1XThOQMn3bEiD9tX8OP5yXrvn3dMfTDPfDviE2pxh2zj/L4qc06v8ccne
akr3Y6PhriWz+TZLwC2MZrx5Z/HRcHHGnhbe2l3qORtTS5+2uvbvuPbH0zG9dW4Z
J432ddruBxJCuXlT3AV+OcPhoc3rQRapcVwEQHxPc71OZGO2Vjs8+u4GMKqlXoa1
LXDrZZfc3WuEUzlPxYVUVeKnVrUqh34ub9Z64hiVLDLMPftaY7GHkoMzyYMkH0Gb
oRhm15tzTC75ho72pFOe1+q8+uiDOJpOnoEAeJ/SS0m9+155WSo9ZSHnXk9nm/Ay
U9BEZYpOvqPKqPBNEXBXlFG9KRGpeUW7X9YwiGHB56FOIySaE2ny+XLgwoMbgvTu
C/SjnPUtFxqiAeoO0jnxkFlaDw==
-----END CERTIFICATE-----
