Certificate:
    Data:
        Version: 3 (0x2)
        Serial Number:
            37:21:3c:47:74:4a:bb:d2:c3:d3:2b:ee:f1:14:9b:a4
        Signature Algorithm: sha256WithRSAEncryption
        Issuer: CN=CA2
        Validity
            Not Before: Feb 13 14:23:52 2021 GMT
            Not After : Jan 29 14:23:52 2024 GMT
        Subject: CN=CA2
        Subject Public Key Info:
            Public Key Algorithm: rsaEncryption
                RSA Public-Key: (4096 bit)
                Modulus:
                    00:c6:87:03:3e:6d:fd:90:8b:6d:b0:31:f5:4a:84:
                    6e:e1:16:ef:48:19:a7:0a:ee:9f:9d:a6:d8:ee:d0:
                    8e:a5:7e:94:96:44:f4:3c:67:2e:19:d8:e2:4b:6f:
                    5a:22:57:fd:58:ef:af:52:85:2e:b0:a7:31:c2:bb:
                    2f:32:f7:2b:e8:82:25:2e:b2:3d:87:2a:e0:a6:54:
                    fe:4c:6a:3b:e3:2e:f0:b6:b4:e9:5f:9c:57:45:53:
                    a8:cd:3e:75:f0:28:a9:51:e7:6c:b6:fb:5e:55:aa:
                    3b:30:db:e8:33:33:05:63:bf:ec:8a:2d:70:de:80:
                    c5:1c:f8:99:6e:3a:a9:6e:4c:88:f7:0e:62:c1:97:
                    be:b9:59:45:82:bf:0d:c0:78:34:6f:ef:8f:58:ed:
                    50:eb:ae:fe:08:8f:2e:79:59:76:36:73:1f:ff:de:
                    5b:37:c9:73:ce:c6:e7:51:64:a9:a6:cd:fa:05:58:
                    aa:35:97:4b:7d:c1:d4:23:da:7f:2d:17:27:a3:d9:
                    ab:a4:aa:4a:00:3d:d2:73:ee:b5:5c:32:64:d2:8a:
                    78:e9:5d:b3:1d:0a:fb:7c:74:a7:21:90:48:ce:66:
                    7f:0e:0a:b8:d7:7e:71:f3:37:e3:d2:3b:83:94:19:
                    95:5f:f0:84:cc:67:60:ca:aa:2d:c0:1a:65:15:6d:
                    97:96:be:f7:1d:a4:7e:e8:ca:52:06:69:7a:4a:86:
                    50:dc:13:d5:38:f3:91:d1:43:9b:e8:e9:0a:1a:f0:
                    f6:11:88:bd:4b:47:17:e9:3c:a9:51:16:f3:3a:ff:
                    3b:94:47:16:45:60:b9:c0:a7:52:1a:e0:e5:8e:09:
                    3a:83:fc:68:d7:77:54:8f:a6:4e:eb:69:cf:82:d2:
                    1e:42:30:21:7e:0d:10:0d:8b:30:f4:ab:26:89:05:
                    98:4b:78:77:aa:25:67:cd:aa:fe:3d:d8:de:94:01:
                    45:bd:61:a7:7d:f7:d4:5a:17:28:f6:f6:a4:20:90:
                    22:a9:ab:85:9a:d4:74:19:e7:72:b6:1d:0c:03:52:
                    9e:53:29:76:d5:03:59:ca:8d:fc:c8:aa:48:db:c0:
                    0f:49:5a:ef:1c:36:6c:fb:06:af:ba:f4:57:34:95:
                    69:5e:43:27:17:08:b4:39:69:85:18:26:a1:0d:f9:
                    f6:7e:bc:90:d5:ee:6e:61:cd:1d:0f:fa:90:c4:6b:
                    6a:73:78:06:6a:1b:0a:fd:a6:d2:86:21:f1:f3:58:
                    77:06:b4:48:f6:94:14:af:92:ba:11:84:52:48:d2:
                    18:1e:10:d4:e8:55:cf:2f:70:3a:dc:1d:b2:41:57:
                    9e:d7:d9:d0:18:80:0b:08:f2:1d:15:f6:61:2a:4c:
                    95:71:8d
                Exponent: 65537 (0x10001)
        X509v3 extensions:
            X509v3 Basic Constraints: 
                CA:FALSE
            X509v3 Subject Key Identifier: 
                DE:D8:2F:9D:02:D3:A7:25:85:97:AF:23:02:7C:DF:8A:63:F5:E7:FB
            X509v3 Authority Key Identifier: 
                keyid:99:60:12:2E:A5:81:23:20:09:87:10:7D:53:27:6C:C5:B5:0D:5F:A1
                DirName:/CN=CA1
                serial:59:8A:48:DD:B7:9D:86:D7:44:66:38:E4:98:53:80:50

            X509v3 Extended Key Usage: 
                oidSign1
            X509v3 Key Usage: 
                Digital Signature
            X509v3 Subject Alternative Name: 
                URI:test:test1
    Signature Algorithm: sha256WithRSAEncryption
         01:a6:eb:58:9c:4c:20:67:df:45:e1:0e:56:66:70:e5:22:f3:
         87:1f:6f:5a:71:b1:e6:97:f8:24:65:3a:f3:19:9f:22:7c:53:
         a7:e2:ec:7d:43:ac:02:51:83:a3:5f:3c:e6:0a:b9:69:8c:e7:
         d4:3e:44:73:23:12:4a:fa:23:4d:c5:1f:27:5c:c9:05:f7:7e:
         de:47:ca:e4:59:a3:0e:f2:3c:39:80:19:bc:a4:01:f7:52:3e:
         b1:d0:d5:f6:d0:66:10:a3:85:af:e2:a7:0c:95:3a:e8:d1:46:
         27:77:6d:51:d1:26:19:f4:16:20:c6:d8:ee:5e:8a:95:59:c9:
         99:ec:81:82:95:63:dc:d1:05:21:7a:f8:2e:a4:fa:0a:76:5e:
         82:bf:62:9e:db:1a:44:63:0d:75:c2:f0:eb:62:9e:45:f8:b8:
         71:ce:52:a2:93:c9:66:89:9a:df:f4:6c:94:82:6a:ce:bb:8f:
         9e:26:94:0c:7a:47:e4:58:a5:b2:eb:c6:52:cd:c2:f0:7e:bf:
         2e:34:ac:8e:90:a2:31:c1:cf:3f:cc:56:88:e5:16:12:a0:10:
         7b:6e:df:c9:02:aa:fd:50:e8:12:1a:5d:ae:29:71:a8:e4:34:
         25:a8:a2:e5:d7:07:42:5a:6c:9d:ed:18:08:48:4a:11:4f:89:
         2b:67:c3:36:5e:44:71:6b:f4:60:92:bc:d6:72:b4:b2:75:dd:
         6d:80:75:35:cf:46:c0:c0:ff:6c:84:33:03:b9:9c:a0:7d:5a:
         0d:d6:93:9b:92:a6:c7:1f:15:da:7a:1f:79:75:32:3d:9c:83:
         e9:25:6d:7c:f2:dc:b7:c2:cc:54:c8:1e:67:32:22:41:69:96:
         42:3d:4b:a8:df:d6:99:42:18:7a:58:0d:14:15:c6:75:49:b1:
         28:cb:e4:54:7c:e3:6f:5b:72:6a:eb:61:8c:bf:4d:fe:40:d0:
         c8:d0:93:ef:0b:7f:68:e2:94:00:60:2a:6e:f7:82:e1:24:65:
         d3:a5:ea:dd:25:04:dc:01:a6:30:c2:50:b7:5f:80:ea:eb:79:
         d3:5f:57:08:b9:74:c7:d9:5e:2d:36:c2:e0:dc:bd:f7:29:d5:
         85:f4:de:f6:be:41:c4:55:31:5c:92:30:6b:7f:04:b3:e0:d0:
         ca:67:cc:40:c7:62:a6:19:6d:cf:9e:11:61:2a:36:4a:c8:b2:
         10:50:42:9e:46:20:de:8c:56:c7:35:fd:62:8b:7b:62:a7:6a:
         dc:39:50:dd:e9:6b:82:7c:de:06:f1:72:9f:4a:f2:a9:fd:8f:
         8c:66:ca:12:63:64:b5:b8:61:5a:0d:72:d1:2a:a6:7b:19:2b:
         85:28:5a:d7:59:e1:bb:c3
-----BEGIN CERTIFICATE-----
MIIFTzCCAzegAwIBAgIQNyE8R3RKu9LD0yvu8RSbpDANBgkqhkiG9w0BAQsFADAO
MQwwCgYDVQQDDANDQTIwHhcNMjEwMjEzMTQyMzUyWhcNMjQwMTI5MTQyMzUyWjAO
MQwwCgYDVQQDDANDQTIwggIiMA0GCSqGSIb3DQEBAQUAA4ICDwAwggIKAoICAQDG
hwM+bf2Qi22wMfVKhG7hFu9IGacK7p+dptju0I6lfpSWRPQ8Zy4Z2OJLb1oiV/1Y
769ShS6wpzHCuy8y9yvogiUusj2HKuCmVP5MajvjLvC2tOlfnFdFU6jNPnXwKKlR
52y2+15Vqjsw2+gzMwVjv+yKLXDegMUc+JluOqluTIj3DmLBl765WUWCvw3AeDRv
749Y7VDrrv4Ijy55WXY2cx//3ls3yXPOxudRZKmmzfoFWKo1l0t9wdQj2n8tFyej
2aukqkoAPdJz7rVcMmTSinjpXbMdCvt8dKchkEjOZn8OCrjXfnHzN+PSO4OUGZVf
8ITMZ2DKqi3AGmUVbZeWvvcdpH7oylIGaXpKhlDcE9U485HRQ5vo6Qoa8PYRiL1L
RxfpPKlRFvM6/zuURxZFYLnAp1Ia4OWOCTqD/GjXd1SPpk7rac+C0h5CMCF+DRAN
izD0qyaJBZhLeHeqJWfNqv492N6UAUW9Yad999RaFyj29qQgkCKpq4Wa1HQZ53K2
HQwDUp5TKXbVA1nKjfzIqkjbwA9JWu8cNmz7Bq+69Fc0lWleQycXCLQ5aYUYJqEN
+fZ+vJDV7m5hzR0P+pDEa2pzeAZqGwr9ptKGIfHzWHcGtEj2lBSvkroRhFJI0hge
ENToVc8vcDrcHbJBV57X2dAYgAsI8h0V9mEqTJVxjQIDAQABo4GoMIGlMAkGA1Ud
EwQCMAAwHQYDVR0OBBYEFN7YL50C06clhZevIwJ834pj9ef7MEUGA1UdIwQ+MDyA
FJlgEi6lgSMgCYcQfVMnbMW1DV+hoRKkEDAOMQwwCgYDVQQDDANDQTGCEFmKSN23
nYbXRGY45JhTgFAwDgYDVR0lBAcwBQYDKgMEMAsGA1UdDwQEAwIHgDAVBgNVHREE
DjAMhgp0ZXN0OnRlc3QxMA0GCSqGSIb3DQEBCwUAA4ICAQABputYnEwgZ99F4Q5W
ZnDlIvOHH29acbHml/gkZTrzGZ8ifFOn4ux9Q6wCUYOjXzzmCrlpjOfUPkRzIxJK
+iNNxR8nXMkF937eR8rkWaMO8jw5gBm8pAH3Uj6x0NX20GYQo4Wv4qcMlTro0UYn
d21R0SYZ9BYgxtjuXoqVWcmZ7IGClWPc0QUhevgupPoKdl6Cv2Ke2xpEYw11wvDr
Yp5F+LhxzlKik8lmiZrf9GyUgmrOu4+eJpQMekfkWKWy68ZSzcLwfr8uNKyOkKIx
wc8/zFaI5RYSoBB7bt/JAqr9UOgSGl2uKXGo5DQlqKLl1wdCWmyd7RgISEoRT4kr
Z8M2XkRxa/RgkrzWcrSydd1tgHU1z0bAwP9shDMDuZygfVoN1pObkqbHHxXaeh95
dTI9nIPpJW188ty3wsxUyB5nMiJBaZZCPUuo39aZQhh6WA0UFcZ1SbEoy+RUfONv
W3Jq62GMv03+QNDI0JPvC39o4pQAYCpu94LhJGXTperdJQTcAaYwwlC3X4Dq63nT
X1cIuXTH2V4tNsLg3L33KdWF9N72vkHEVTFckjBrfwSz4NDKZ8xAx2KmGW3PnhFh
KjZKyLIQUEKeRiDejFbHNf1ii3tip2rcOVDd6WuCfN4G8XKfSvKp/Y+MZsoSY2S1
uGFaDXLRKqZ7GSuFKFrXWeG7ww==
-----END CERTIFICATE-----
